target datalayout = "e-m:e-p270:32:32-p271:32:32-p272:64:64-i64:64-i128:128-f80:128-n8:16:32:64-S128"
target triple = "x86_64-pc-linux-gnu"

%struct.ident_t = type { i32, i32, i32, i32, ptr }
%"class.std::vector.13" = type { %"struct.std::_Vector_base.14" }
%"struct.std::_Vector_base.14" = type { %"struct.std::_Vector_base<double, std::allocator<double>>::_Vector_impl" }
%"struct.std::_Vector_base<double, std::allocator<double>>::_Vector_impl" = type { %"struct.std::_Vector_base<double, std::allocator<double>>::_Vector_impl_data" }
%"struct.std::_Vector_base<double, std::allocator<double>>::_Vector_impl_data" = type { ptr, ptr, ptr }
%"class.LightGBM::ObjectiveFunction" = type { ptr }
%"class.std::vector" = type { %"struct.std::_Vector_base" }
%"struct.std::_Vector_base" = type { %"struct.std::_Vector_base<float, std::allocator<float>>::_Vector_impl" }
%"struct.std::_Vector_base<float, std::allocator<float>>::_Vector_impl" = type { %"struct.std::_Vector_base<float, std::allocator<float>>::_Vector_impl_data" }
%"struct.std::_Vector_base<float, std::allocator<float>>::_Vector_impl_data" = type { ptr, ptr, ptr }
%"class.LightGBM::LambdarankNDCG" = type { %"class.LightGBM::RankingObjective", double, i8, i32, %"class.std::vector.13", %"class.std::vector.13", %"class.std::vector.13", i64, double, double, double }
%"class.LightGBM::RankingObjective" = type { %"class.LightGBM::ObjectiveFunction", i32, i32, i32, ptr, ptr, ptr, ptr, i32, ptr, %"class.std::vector", double, double }

@1 = private unnamed_addr constant %struct.ident_t { i32 0, i32 514, i32 0, i32 22, ptr @0 }, align 8

; Function Attrs: mustprogress nounwind uwtable
define linkonce_odr noundef nonnull align 8 dereferenceable(8) ptr @_ZNSt6vectorIdSaIdEEixEm(ptr noundef nonnull align 8 dereferenceable(24) %0, i64 noundef %1) #7 comdat align 2 {
  %3 = alloca ptr, align 8
  %4 = alloca i64, align 8
  store ptr %0, ptr %3, align 8, !tbaa !304
  store i64 %1, ptr %4, align 8, !tbaa !166
  %5 = load ptr, ptr %3, align 8
  %6 = getelementptr inbounds nuw %"struct.std::_Vector_base.14", ptr %5, i32 0, i32 0
  %7 = getelementptr inbounds nuw %"struct.std::_Vector_base<double, std::allocator<double>>::_Vector_impl_data", ptr %6, i32 0, i32 0
  %8 = load ptr, ptr %7, align 8, !tbaa !307
  %9 = load i64, ptr %4, align 8, !tbaa !166
  %10 = getelementptr inbounds nuw double, ptr %8, i64 %9
  ret ptr %10
}

; Function Attrs: alwaysinline norecurse nounwind uwtable
define internal void @_ZN8LightGBM14LambdarankNDCG4InitERKNS_8MetadataEi.omp_outlined(ptr noalias noundef %0, ptr noalias noundef %1, ptr noundef %2) #16 personality ptr @__gxx_personality_v0 {
  %4 = alloca ptr, align 8
  %5 = alloca ptr, align 8
  %6 = alloca ptr, align 8
  %7 = alloca i32, align 4
  %8 = alloca i32, align 4
  %9 = alloca i32, align 4
  %10 = alloca i32, align 4
  %11 = alloca i32, align 4
  %12 = alloca i32, align 4
  %13 = alloca i32, align 4
  %14 = alloca i32, align 4
  %15 = alloca i32, align 4
  store ptr %0, ptr %4, align 8, !tbaa !193
  store ptr %1, ptr %5, align 8, !tbaa !193
  store ptr %2, ptr %6, align 8, !tbaa !112
  %16 = load ptr, ptr %6, align 8, !tbaa !112
  call void @llvm.lifetime.start.p0(i64 4, ptr %7) #3
  call void @llvm.lifetime.start.p0(i64 4, ptr %8) #3
  %17 = getelementptr inbounds nuw %"class.LightGBM::RankingObjective", ptr %16, i32 0, i32 2
  %18 = load i32, ptr %17, align 4, !tbaa !606
  store i32 %18, ptr %8, align 4, !tbaa !141
  call void @llvm.lifetime.start.p0(i64 4, ptr %9) #3
  %19 = load i32, ptr %8, align 4, !tbaa !141
  %20 = sub nsw i32 %19, 0
  %21 = sdiv i32 %20, 1
  %22 = sub nsw i32 %21, 1
  store i32 %22, ptr %9, align 4, !tbaa !141
  call void @llvm.lifetime.start.p0(i64 4, ptr %10) #3
  store i32 0, ptr %10, align 4, !tbaa !141
  call void @llvm.lifetime.end.p0(i64 4, ptr %10) #3
  %23 = load i32, ptr %8, align 4, !tbaa !141
  %24 = icmp slt i32 0, %23
  br i1 %24, label %25, label %106

25:                                               ; preds = %3
  call void @llvm.lifetime.start.p0(i64 4, ptr %11) #3
  store i32 0, ptr %11, align 4, !tbaa !141
  call void @llvm.lifetime.start.p0(i64 4, ptr %12) #3
  %26 = load i32, ptr %9, align 4, !tbaa !141
  store i32 %26, ptr %12, align 4, !tbaa !141
  call void @llvm.lifetime.start.p0(i64 4, ptr %13) #3
  store i32 1, ptr %13, align 4, !tbaa !141
  call void @llvm.lifetime.start.p0(i64 4, ptr %14) #3
  store i32 0, ptr %14, align 4, !tbaa !141
  call void @llvm.lifetime.start.p0(i64 4, ptr %15) #3
  %27 = load ptr, ptr %4, align 8
  %28 = load i32, ptr %27, align 4, !tbaa !141
  call void @__kmpc_for_static_init_4(ptr @1, i32 %28, i32 34, ptr %14, ptr %11, ptr %12, ptr %13, i32 1, i32 1)
  %29 = load i32, ptr %12, align 4, !tbaa !141
  %30 = load i32, ptr %9, align 4, !tbaa !141
  %31 = icmp sgt i32 %29, %30
  br i1 %31, label %32, label %34

32:                                               ; preds = %25
  %33 = load i32, ptr %9, align 4, !tbaa !141
  br label %36

34:                                               ; preds = %25
  %35 = load i32, ptr %12, align 4, !tbaa !141
  br label %36

36:                                               ; preds = %34, %32
  %37 = phi i32 [ %33, %32 ], [ %35, %34 ]
  store i32 %37, ptr %12, align 4, !tbaa !141
  %38 = load i32, ptr %11, align 4, !tbaa !141
  store i32 %38, ptr %7, align 4, !tbaa !141
  br label %39

39:                                               ; preds = %99, %36
  %40 = load i32, ptr %7, align 4, !tbaa !141
  %41 = load i32, ptr %12, align 4, !tbaa !141
  %42 = icmp sle i32 %40, %41
  br i1 %42, label %44, label %43

43:                                               ; preds = %39
  br label %102

44:                                               ; preds = %39
  %45 = load i32, ptr %7, align 4, !tbaa !141
  %46 = mul nsw i32 %45, 1
  %47 = add nsw i32 0, %46
  store i32 %47, ptr %15, align 4, !tbaa !141
  %48 = getelementptr inbounds nuw %"class.LightGBM::LambdarankNDCG", ptr %16, i32 0, i32 3
  %49 = load i32, ptr %48, align 4, !tbaa !120
  %50 = getelementptr inbounds nuw %"class.LightGBM::RankingObjective", ptr %16, i32 0, i32 4
  %51 = load ptr, ptr %50, align 8, !tbaa !607
  %52 = getelementptr inbounds nuw %"class.LightGBM::RankingObjective", ptr %16, i32 0, i32 9
  %53 = load ptr, ptr %52, align 8, !tbaa !620
  %54 = load i32, ptr %15, align 4, !tbaa !141
  %55 = sext i32 %54 to i64
  %56 = getelementptr inbounds i32, ptr %53, i64 %55
  %57 = load i32, ptr %56, align 4, !tbaa !141
  %58 = sext i32 %57 to i64
  %59 = getelementptr inbounds float, ptr %51, i64 %58
  %60 = getelementptr inbounds nuw %"class.LightGBM::RankingObjective", ptr %16, i32 0, i32 9
  %61 = load ptr, ptr %60, align 8, !tbaa !620
  %62 = load i32, ptr %15, align 4, !tbaa !141
  %63 = add nsw i32 %62, 1
  %64 = sext i32 %63 to i64
  %65 = getelementptr inbounds i32, ptr %61, i64 %64
  %66 = load i32, ptr %65, align 4, !tbaa !141
  %67 = getelementptr inbounds nuw %"class.LightGBM::RankingObjective", ptr %16, i32 0, i32 9
  %68 = load ptr, ptr %67, align 8, !tbaa !620
  %69 = load i32, ptr %15, align 4, !tbaa !141
  %70 = sext i32 %69 to i64
  %71 = getelementptr inbounds i32, ptr %68, i64 %70
  %72 = load i32, ptr %71, align 4, !tbaa !141
  %73 = sub nsw i32 %66, %72
  %74 = invoke noundef double @_ZN8LightGBM13DCGCalculator12CalMaxDCGAtKEiPKfi(i32 noundef %49, ptr noundef %59, i32 noundef %73)
          to label %75 unwind label %107

75:                                               ; preds = %44
  %76 = getelementptr inbounds nuw %"class.LightGBM::LambdarankNDCG", ptr %16, i32 0, i32 4
  %77 = load i32, ptr %15, align 4, !tbaa !141
  %78 = sext i32 %77 to i64
  %79 = call noundef nonnull align 8 dereferenceable(8) ptr @_ZNSt6vectorIdSaIdEEixEm(ptr noundef nonnull align 8 dereferenceable(24) %76, i64 noundef %78) #3
  store double %74, ptr %79, align 8, !tbaa !194
  %80 = getelementptr inbounds nuw %"class.LightGBM::LambdarankNDCG", ptr %16, i32 0, i32 4
  %81 = load i32, ptr %15, align 4, !tbaa !141
  %82 = sext i32 %81 to i64
  %83 = call noundef nonnull align 8 dereferenceable(8) ptr @_ZNSt6vectorIdSaIdEEixEm(ptr noundef nonnull align 8 dereferenceable(24) %80, i64 noundef %82) #3
  %84 = load double, ptr %83, align 8, !tbaa !194
  %85 = fcmp ogt double %84, 0.000000e+00
  br i1 %85, label %86, label %97

86:                                               ; preds = %75
  %87 = getelementptr inbounds nuw %"class.LightGBM::LambdarankNDCG", ptr %16, i32 0, i32 4
  %88 = load i32, ptr %15, align 4, !tbaa !141
  %89 = sext i32 %88 to i64
  %90 = call noundef nonnull align 8 dereferenceable(8) ptr @_ZNSt6vectorIdSaIdEEixEm(ptr noundef nonnull align 8 dereferenceable(24) %87, i64 noundef %89) #3
  %91 = load double, ptr %90, align 8, !tbaa !194
  %92 = fdiv double 1.000000e+00, %91
  %93 = getelementptr inbounds nuw %"class.LightGBM::LambdarankNDCG", ptr %16, i32 0, i32 4
  %94 = load i32, ptr %15, align 4, !tbaa !141
  %95 = sext i32 %94 to i64
  %96 = call noundef nonnull align 8 dereferenceable(8) ptr @_ZNSt6vectorIdSaIdEEixEm(ptr noundef nonnull align 8 dereferenceable(24) %93, i64 noundef %95) #3
  store double %92, ptr %96, align 8, !tbaa !194
  br label %97

97:                                               ; preds = %86, %75
  br label %98

98:                                               ; preds = %97
  br label %99

99:                                               ; preds = %98
  %100 = load i32, ptr %7, align 4, !tbaa !141
  %101 = add nsw i32 %100, 1
  store i32 %101, ptr %7, align 4, !tbaa !141
  br label %39

102:                                              ; preds = %43
  br label %103

103:                                              ; preds = %102
  %104 = load ptr, ptr %4, align 8
  %105 = load i32, ptr %104, align 4, !tbaa !141
  call void @__kmpc_for_static_fini(ptr @1, i32 %105)
  call void @llvm.lifetime.end.p0(i64 4, ptr %15) #3
  call void @llvm.lifetime.end.p0(i64 4, ptr %14) #3
  call void @llvm.lifetime.end.p0(i64 4, ptr %13) #3
  call void @llvm.lifetime.end.p0(i64 4, ptr %12) #3
  call void @llvm.lifetime.end.p0(i64 4, ptr %11) #3
  br label %106

106:                                              ; preds = %103, %3
  call void @llvm.lifetime.end.p0(i64 4, ptr %9) #3
  call void @llvm.lifetime.end.p0(i64 4, ptr %8) #3
  call void @llvm.lifetime.end.p0(i64 4, ptr %7) #3
  ret void

107:                                              ; preds = %44
  %108 = landingpad { ptr, i32 }
          catch ptr null
  %109 = extractvalue { ptr, i32 } %108, 0
  call void @__clang_call_terminate(ptr %109) #29
  unreachable
}