; Function Attrs: alwaysinline norecurse nounwind uwtable
define internal void @_ZN8LightGBM14LambdarankNDCG4InitERKNS_8MetadataEi.omp_outlined(ptr noalias noundef readonly captures(none) %0, ptr noalias readnone captures(none) %1, ptr noundef readonly captures(none) %2) #14 personality ptr @__gxx_personality_v0 {
  %4 = alloca i32, align 4
  %5 = alloca i32, align 4
  %6 = alloca i32, align 4
  %7 = alloca i32, align 4
  %8 = getelementptr inbounds nuw i8, ptr %2, i64 12
  %9 = load i32, ptr %8, align 4, !tbaa !373
  %10 = icmp sgt i32 %9, 0
  br i1 %10, label %11, label %41

11:                                               ; preds = %3
  %12 = add nsw i32 %9, -1
  call void @llvm.lifetime.start.p0(i64 4, ptr nonnull %4) #15
  store i32 0, ptr %4, align 4, !tbaa !127
  call void @llvm.lifetime.start.p0(i64 4, ptr nonnull %5) #15
  store i32 %12, ptr %5, align 4, !tbaa !127
  call void @llvm.lifetime.start.p0(i64 4, ptr nonnull %6) #15
  store i32 1, ptr %6, align 4, !tbaa !127
  call void @llvm.lifetime.start.p0(i64 4, ptr nonnull %7) #15
  store i32 0, ptr %7, align 4, !tbaa !127
  %13 = load i32, ptr %0, align 4, !tbaa !127
  call void @__kmpc_for_static_init_4(ptr nonnull @1, i32 %13, i32 34, ptr nonnull %7, ptr nonnull %4, ptr nonnull %5, ptr nonnull %6, i32 1, i32 1)
  %14 = load i32, ptr %5, align 4, !tbaa !127
  %15 = call i32 @llvm.smin.i32(i32 %14, i32 %12)
  store i32 %15, ptr %5, align 4, !tbaa !127
  %16 = load i32, ptr %4, align 4, !tbaa !127
  %.not17 = icmp sgt i32 %16, %15
  br i1 %.not17, label %._crit_edge, label %.lr.ph

.lr.ph:                                           ; preds = %11
  %17 = getelementptr inbounds nuw i8, ptr %2, i64 124
  %18 = getelementptr inbounds nuw i8, ptr %2, i64 24
  %19 = getelementptr inbounds nuw i8, ptr %2, i64 64
  %20 = getelementptr inbounds nuw i8, ptr %2, i64 128
  %21 = sext i32 %16 to i64
  br label %22

22:                                               ; preds = %.lr.ph, %34
  %indvars.iv = phi i64 [ %21, %.lr.ph ], [ %indvars.iv.next, %34 ]
  %23 = load i32, ptr %17, align 4, !tbaa !113
  %24 = load ptr, ptr %18, align 8, !tbaa !374
  %25 = load ptr, ptr %19, align 8, !tbaa !396
  %26 = getelementptr inbounds i32, ptr %25, i64 %indvars.iv
  %27 = load i32, ptr %26, align 4, !tbaa !127
  %28 = sext i32 %27 to i64
  %29 = getelementptr inbounds float, ptr %24, i64 %28
  %indvars.iv.next = add nsw i64 %indvars.iv, 1
  %30 = getelementptr inbounds i32, ptr %25, i64 %indvars.iv.next
  %31 = load i32, ptr %30, align 4, !tbaa !127
  %32 = sub nsw i32 %31, %27
  %33 = invoke noundef double @_ZN8LightGBM13DCGCalculator12CalMaxDCGAtKEiPKfi(i32 noundef %23, ptr noundef %29, i32 noundef %32)
          to label %34 unwind label %42

34:                                               ; preds = %22
  %35 = load ptr, ptr %20, align 8, !tbaa !117
  %36 = getelementptr inbounds nuw double, ptr %35, i64 %indvars.iv
  %37 = fcmp ogt double %33, 0.000000e+00
  %38 = fdiv double 1.000000e+00, %33
  %storemerge = select i1 %37, double %38, double %33
  store double %storemerge, ptr %36, align 8, !tbaa !153
  %39 = load i32, ptr %5, align 4, !tbaa !127
  %40 = sext i32 %39 to i64
  %.not.not = icmp slt i64 %indvars.iv, %40
  br i1 %.not.not, label %22, label %._crit_edge

._crit_edge:                                      ; preds = %34, %11
  call void @__kmpc_for_static_fini(ptr nonnull @1, i32 %13)
  call void @llvm.lifetime.end.p0(i64 4, ptr nonnull %7) #15
  call void @llvm.lifetime.end.p0(i64 4, ptr nonnull %6) #15
  call void @llvm.lifetime.end.p0(i64 4, ptr nonnull %5) #15
  call void @llvm.lifetime.end.p0(i64 4, ptr nonnull %4) #15
  br label %41

41:                                               ; preds = %._crit_edge, %3
  ret void

42:                                               ; preds = %22
  %43 = landingpad { ptr, i32 }
          catch ptr null
  %44 = extractvalue { ptr, i32 } %43, 0
  call void @__clang_call_terminate(ptr %44) #37
  unreachable
}